target datalayout = "e-m:e-p270:32:32-p271:32:32-p272:64:64-i64:64-i128:128-f80:128-n8:16:32:64-S128"
target triple = "x86_64-pc-linux-gnu"

%struct.TLSX = type { i32, ptr, i32, i8, ptr }
%struct.SNI = type { i8, %union.anon, ptr, i8, i8 }
%union.anon = type { ptr }

; Function Attrs: nounwind uwtable
define internal ptr @TLSX_SNI_Find(ptr noundef %0, i8 noundef zeroext %1) #0 {
  %3 = alloca ptr, align 8
  %4 = alloca i8, align 1
  %5 = alloca ptr, align 8
  store ptr %0, ptr %3, align 8, !tbaa !111
  store i8 %1, ptr %4, align 1, !tbaa !55
  call void @llvm.lifetime.start.p0(i64 8, ptr %5) #8
  %6 = load ptr, ptr %3, align 8, !tbaa !111
  store ptr %6, ptr %5, align 8, !tbaa !111
  br label %7

7:                                                ; preds = %20, %2
  %8 = load ptr, ptr %5, align 8, !tbaa !111
  %9 = icmp ne ptr %8, null
  br i1 %9, label %10, label %18

10:                                               ; preds = %7
  %11 = load ptr, ptr %5, align 8, !tbaa !111
  %12 = getelementptr inbounds nuw %struct.SNI, ptr %11, i32 0, i32 0
  %13 = load i8, ptr %12, align 8, !tbaa !115
  %14 = zext i8 %13 to i32
  %15 = load i8, ptr %4, align 1, !tbaa !55
  %16 = zext i8 %15 to i32
  %17 = icmp ne i32 %14, %16
  br label %18

18:                                               ; preds = %10, %7
  %19 = phi i1 [ false, %7 ], [ %17, %10 ]
  br i1 %19, label %20, label %24

20:                                               ; preds = %18
  %21 = load ptr, ptr %5, align 8, !tbaa !111
  %22 = getelementptr inbounds nuw %struct.SNI, ptr %21, i32 0, i32 2
  %23 = load ptr, ptr %22, align 8, !tbaa !116
  store ptr %23, ptr %5, align 8, !tbaa !111
  br label %7, !llvm.loop !117

24:                                               ; preds = %18
  %25 = load ptr, ptr %5, align 8, !tbaa !111
  call void @llvm.lifetime.end.p0(i64 8, ptr %5) #8
  ret ptr %25
}

; Function Attrs: nounwind uwtable
define ptr @TLSX_Find(ptr noundef %0, i32 noundef %1) #0 {
  %3 = alloca ptr, align 8
  %4 = alloca i32, align 4
  %5 = alloca ptr, align 8
  store ptr %0, ptr %3, align 8, !tbaa !77
  store i32 %1, ptr %4, align 4, !tbaa !12
  call void @llvm.lifetime.start.p0(i64 8, ptr %5) #8
  %6 = load ptr, ptr %3, align 8, !tbaa !77
  store ptr %6, ptr %5, align 8, !tbaa !77
  br label %7

7:                                                ; preds = %18, %2
  %8 = load ptr, ptr %5, align 8, !tbaa !77
  %9 = icmp ne ptr %8, null
  br i1 %9, label %10, label %16

10:                                               ; preds = %7
  %11 = load ptr, ptr %5, align 8, !tbaa !77
  %12 = getelementptr inbounds nuw %struct.TLSX, ptr %11, i32 0, i32 0
  %13 = load i32, ptr %12, align 8, !tbaa !78
  %14 = load i32, ptr %4, align 4, !tbaa !12
  %15 = icmp ne i32 %13, %14
  br label %16

16:                                               ; preds = %10, %7
  %17 = phi i1 [ false, %7 ], [ %15, %10 ]
  br i1 %17, label %18, label %22

18:                                               ; preds = %16
  %19 = load ptr, ptr %5, align 8, !tbaa !77
  %20 = getelementptr inbounds nuw %struct.TLSX, ptr %19, i32 0, i32 4
  %21 = load ptr, ptr %20, align 8, !tbaa !80
  store ptr %21, ptr %5, align 8, !tbaa !77
  br label %7, !llvm.loop !110

22:                                               ; preds = %16
  %23 = load ptr, ptr %5, align 8, !tbaa !77
  call void @llvm.lifetime.end.p0(i64 8, ptr %5) #8
  ret ptr %23
}

; Function Attrs: nounwind uwtable
define zeroext i16 @TLSX_SNI_GetRequest(ptr noundef %0, i8 noundef zeroext %1, ptr noundef %2, i8 noundef zeroext %3) #0 {
  %5 = alloca i16, align 2
  %6 = alloca ptr, align 8
  %7 = alloca i8, align 1
  %8 = alloca ptr, align 8
  %9 = alloca i8, align 1
  %10 = alloca ptr, align 8
  %11 = alloca ptr, align 8
  %12 = alloca i32, align 4
  store ptr %0, ptr %6, align 8, !tbaa !77
  store i8 %1, ptr %7, align 1, !tbaa !55
  store ptr %2, ptr %8, align 8, !tbaa !54
  store i8 %3, ptr %9, align 1, !tbaa !55
  call void @llvm.lifetime.start.p0(i64 8, ptr %10) #8
  %13 = load ptr, ptr %6, align 8, !tbaa !77
  %14 = call ptr @TLSX_Find(ptr noundef %13, i32 noundef 0)
  store ptr %14, ptr %10, align 8, !tbaa !77
  call void @llvm.lifetime.start.p0(i64 8, ptr %11) #8
  %15 = load ptr, ptr %10, align 8, !tbaa !77
  %16 = icmp ne ptr %15, null
  br i1 %16, label %17, label %21

17:                                               ; preds = %4
  %18 = load ptr, ptr %10, align 8, !tbaa !77
  %19 = getelementptr inbounds nuw %struct.TLSX, ptr %18, i32 0, i32 1
  %20 = load ptr, ptr %19, align 8, !tbaa !103
  br label %22

21:                                               ; preds = %4
  br label %22

22:                                               ; preds = %21, %17
  %23 = phi ptr [ %20, %17 ], [ null, %21 ]
  %24 = load i8, ptr %7, align 1, !tbaa !55
  %25 = call ptr @TLSX_SNI_Find(ptr noundef %23, i8 noundef zeroext %24)
  store ptr %25, ptr %11, align 8, !tbaa !111
  %26 = load ptr, ptr %11, align 8, !tbaa !111
  %27 = icmp ne ptr %26, null
  br i1 %27, label %28, label %57

28:                                               ; preds = %22
  %29 = load i8, ptr %9, align 1, !tbaa !55
  %30 = zext i8 %29 to i32
  %31 = icmp ne i32 %30, 0
  br i1 %31, label %38, label %32

32:                                               ; preds = %28
  %33 = load ptr, ptr %11, align 8, !tbaa !111
  %34 = getelementptr inbounds nuw %struct.SNI, ptr %33, i32 0, i32 3
  %35 = load i8, ptr %34, align 8, !tbaa !113
  %36 = zext i8 %35 to i32
  %37 = icmp ne i32 %36, 0
  br i1 %37, label %38, label %57

38:                                               ; preds = %32, %28
  %39 = load ptr, ptr %11, align 8, !tbaa !111
  %40 = getelementptr inbounds nuw %struct.SNI, ptr %39, i32 0, i32 0
  %41 = load i8, ptr %40, align 8, !tbaa !115
  %42 = zext i8 %41 to i32
  switch i32 %42, label %56 [
    i32 0, label %43
  ]

43:                                               ; preds = %38
  %44 = load ptr, ptr %8, align 8, !tbaa !54
  %45 = icmp ne ptr %44, null
  br i1 %45, label %46, label %55

46:                                               ; preds = %43
  %47 = load ptr, ptr %11, align 8, !tbaa !111
  %48 = getelementptr inbounds nuw %struct.SNI, ptr %47, i32 0, i32 1
  %49 = load ptr, ptr %48, align 8, !tbaa !55
  %50 = load ptr, ptr %8, align 8, !tbaa !54
  store ptr %49, ptr %50, align 8, !tbaa !54
  %51 = load ptr, ptr %8, align 8, !tbaa !54
  %52 = load ptr, ptr %51, align 8, !tbaa !54
  %53 = call i64 @strlen(ptr noundef %52) #9
  %54 = trunc i64 %53 to i16
  store i16 %54, ptr %5, align 2
  store i32 1, ptr %12, align 4
  br label %58

55:                                               ; preds = %43
  br label %56

56:                                               ; preds = %55, %38
  br label %57

57:                                               ; preds = %56, %32, %22
  store i16 0, ptr %5, align 2
  store i32 1, ptr %12, align 4
  br label %58

58:                                               ; preds = %57, %46
  call void @llvm.lifetime.end.p0(i64 8, ptr %11) #8
  call void @llvm.lifetime.end.p0(i64 8, ptr %10) #8
  %59 = load i16, ptr %5, align 2
  ret i16 %59
}