; Function Attrs: nofree nounwind memory(read, argmem: readwrite, inaccessiblemem: none) uwtable
define zeroext i16 @TLSX_SNI_GetRequest(ptr noundef readonly captures(address_is_null) %0, i8 noundef zeroext %1, ptr noundef writeonly captures(address_is_null) %2, i8 noundef zeroext %3) local_unnamed_addr #10 {
  %.not6.i = icmp eq ptr %0, null
  br i1 %.not6.i, label %TLSX_SNI_Find.exit.thread, label %.lr.ph.i

.lr.ph.i:                                         ; preds = %4, %6
  %.07.i = phi ptr [ %8, %6 ], [ %0, %4 ]
  %5 = load i32, ptr %.07.i, align 8, !tbaa !60
  %.not5.i = icmp eq i32 %5, 0
  br i1 %.not5.i, label %9, label %6

6:                                                ; preds = %.lr.ph.i
  %7 = getelementptr inbounds nuw i8, ptr %.07.i, i64 24
  %8 = load ptr, ptr %7, align 8, !tbaa !63
  %.not.i = icmp eq ptr %8, null
  br i1 %.not.i, label %TLSX_SNI_Find.exit.thread, label %.lr.ph.i, !llvm.loop !101

9:                                                ; preds = %.lr.ph.i
  %10 = getelementptr inbounds nuw i8, ptr %.07.i, i64 8
  %11 = load ptr, ptr %10, align 8, !tbaa !82
  %.not6.i19 = icmp eq ptr %11, null
  br i1 %.not6.i19, label %TLSX_SNI_Find.exit.thread, label %.lr.ph.i20

.lr.ph.i20:                                       ; preds = %9, %13
  %.07.i21 = phi ptr [ %15, %13 ], [ %11, %9 ]
  %12 = load i8, ptr %.07.i21, align 8, !tbaa !88
  %.not5.i22 = icmp eq i8 %12, %1
  br i1 %.not5.i22, label %TLSX_SNI_Find.exit, label %13

13:                                               ; preds = %.lr.ph.i20
  %14 = getelementptr inbounds nuw i8, ptr %.07.i21, i64 16
  %15 = load ptr, ptr %14, align 8, !tbaa !85
  %.not.i23 = icmp eq ptr %15, null
  br i1 %.not.i23, label %TLSX_SNI_Find.exit.thread, label %.lr.ph.i20, !llvm.loop !104

TLSX_SNI_Find.exit:                               ; preds = %.lr.ph.i20
  %.not17 = icmp eq i8 %3, 0
  br i1 %.not17, label %16, label %19

16:                                               ; preds = %TLSX_SNI_Find.exit
  %17 = getelementptr inbounds nuw i8, ptr %.07.i21, i64 24
  %18 = load i8, ptr %17, align 8, !tbaa !105
  %.not18 = icmp eq i8 %18, 0
  br i1 %.not18, label %TLSX_SNI_Find.exit.thread, label %19

19:                                               ; preds = %16, %TLSX_SNI_Find.exit
  %cond = icmp eq i8 %1, 0
  %20 = icmp ne ptr %2, null
  %or.cond = and i1 %20, %cond
  br i1 %or.cond, label %21, label %TLSX_SNI_Find.exit.thread

21:                                               ; preds = %19
  %22 = getelementptr inbounds nuw i8, ptr %.07.i21, i64 8
  %23 = load ptr, ptr %22, align 8, !tbaa !51
  store ptr %23, ptr %2, align 8, !tbaa !108
  %24 = tail call i64 @strlen(ptr noundef nonnull dereferenceable(1) %23) #18
  %25 = trunc i64 %24 to i16
  br label %TLSX_SNI_Find.exit.thread

TLSX_SNI_Find.exit.thread:                        ; preds = %6, %13, %4, %9, %16, %19, %21
  %.0 = phi i16 [ %25, %21 ], [ 0, %19 ], [ 0, %16 ], [ 0, %9 ], [ 0, %4 ], [ 0, %13 ], [ 0, %6 ]
  ret i16 %.0
}